(dp1
S'RIGHT'
p2
(lp3
(F393
F515
tp4
a(F390
F505
tp5
a(F392
F508
tp6
a(F391
F501
tp7
a(F396
F492
tp8
a(F399
F492
tp9
a(F391
F485
tp10
a(F380
F480
tp11
a(F365
F481
tp12
a(F354
F472
tp13
a(F345
F472
tp14
a(F333
F464
tp15
a(F322
F461
tp16
a(F316
F463
tp17
a(F312
F454
tp18
a(F317
F453
tp19
a(F322
F449
tp20
a(F326
F444
tp21
a(F333
F454
tp22
a(F335
F451
tp23
a(F344
F449
tp24
a(F352
F446
tp25
a(F353
F440
tp26
a(F356
F445
tp27
a(F357
F442
tp28
a(F363
F435
tp29
a(F372
F441
tp30
a(F373
F438
tp31
a(F378
F445
tp32
a(F381
F449
tp33
a(F389
F447
tp34
a(F402
F456
tp35
a(F409
F456
tp36
a(F414
F459
tp37
a(F417
F467
tp38
a(F422
F462
tp39
a(F433
F465
tp40
a(F438
F464
tp41
a(F438
F461
tp42
a(F438
F473
tp43
a(F433
F467
tp44
a(F432
F459
tp45
a(F432
F456
tp46
a(F429
F449
tp47
a(F426
F454
tp48
a(F423
F451
tp49
a(F426
F448
tp50
a(F434
F449
tp51
a(F438
F442
tp52
a(F445
F446
tp53
a(F447
F444
tp54
a(F454
F437
tp55
a(F466
F435
tp56
a(F473
F427
tp57
a(F481
F424
tp58
a(F485
F428
tp59
a(F491
F419
tp60
a(F504
F414
tp61
a(F512
F403
tp62
a(F520
F395
tp63
a(F519
F394
tp64
a(F519
F382
tp65
a(F523
F373
tp66
a(F525
F370
tp67
a(F518
F365
tp68
a(F512
F377
tp69
a(F500
F378
tp70
a(F491
F381
tp71
a(F484
F385
tp72
a(F466
F383
tp73
a(F446
F393
tp74
a(F423
F397
tp75
a(F403
F398
tp76
a(F389
F410
tp77
a(F372
F414
tp78
a(F359
F426
tp79
a(F347
F440
tp80
a(F343
F446
tp81
a(F343
F459
tp82
a(F341
F463
tp83
a(F340
F466
tp84
a(F339
F477
tp85
a(F338
F474
tp86
a(F345
F475
tp87
a(F348
F471
tp88
a(F349
F465
tp89
a(F351
F471
tp90
a(F350
F465
tp91
a(F354
F460
tp92
a(F358
F461
tp93
a(F360
F456
tp94
a(F358
F466
tp95
a(F357
F466
tp96
a(F360
F463
tp97
a(F371
F466
tp98
a(F374
F461
tp99
a(F379
F466
tp100
a(F385
F469
tp101
a(F393
F462
tp102
a(F408
F465
tp103
a(F418
F460
tp104
a(F426
F453
tp105
a(F436
F461
tp106
a(F444
F452
tp107
a(F458
F447
tp108
a(F469
F438
tp109
a(F478
F427
tp110
a(F486
F429
tp111
a(F493
F420
tp112
a(F503
F416
tp113
a(F512
F415
tp114
a(F518
F406
tp115
a(F525
F413
tp116
a(F527
F409
tp117
a(F532
F401
tp118
a(F538
F406
tp119
a(F535
F401
tp120
a(F534
F407
tp121
a(F531
F414
tp122
a(F530
F417
tp123
a(F535
F432
tp124
a(F535
F439
tp125
a(F534
F447
tp126
a(F534
F461
tp127
a(F537
F462
tp128
a(F545
F465
tp129
a(F549
F464
tp130
a(F549
F463
tp131
a(F552
F473
tp132
a(F550
F471
tp133
a(F553
F471
tp134
a(F553
F472
tp135
a(F549
F469
tp136
a(F545
F477
tp137
a(F538
F475
tp138
a(F540
F471
tp139
a(F538
F473
tp140
a(F532
F465
tp141
a(F531
F468
tp142
a(F527
F469
tp143
a(F528
F468
tp144
a(F532
F477
tp145
a(F530
F473
tp146
a(F530
F478
tp147
a(F529
F481
tp148
a(F526
F475
tp149
a(F529
F477
tp150
a(F527
F473
tp151
a(F520
F470
tp152
a(F516
F473
tp153
a(F512
F466
tp154
a(F515
F465
tp155
a(F515
F463
tp156
a(F504
F459
tp157
a(F511
F467
tp158
a(F505
F463
tp159
a(F506
F456
tp160
a(F507
F459
tp161
a(F503
F451
tp162
a(F502
F455
tp163
a(F498
F452
tp164
a(F498
F446
tp165
a(F500
F449
tp166
a(F496
F445
tp167
a(F493
F447
tp168
a(F491
F455
tp169
a(F485
F453
tp170
a(F485
F462
tp171
a(F481
F461
tp172
a(F481
F461
tp173
a(F477
F470
tp174
a(F476
F465
tp175
a(F481
F470
tp176
a(F483
F472
tp177
a(F481
F471
tp178
a(F481
F481
tp179
a(F474
F477
tp180
a(F473
F475
tp181
a(F475
F477
tp182
a(F472
F475
tp183
a(F473
F479
tp184
a(F472
F475
tp185
a(F475
F469
tp186
a(F483
F473
tp187
a(F484
F468
tp188
a(F488
F472
tp189
a(F491
F471
tp190
a(F497
F461
tp191
a(F509
F458
tp192
a(F513
F446
tp193
a(F516
F436
tp194
a(F519
F431
tp195
a(F517
F416
tp196
a(F522
F410
tp197
a(F523
F401
tp198
a(F520
F394
tp199
a(F519
F401
tp200
a(F515
F397
tp201
a(F516
F397
tp202
a(F516
F400
tp203
a(F510
F393
tp204
a(F507
F403
tp205
a(F499
F403
tp206
a(F494
F397
tp207
a(F495
F400
tp208
a(F491
F397
tp209
a(F489
F403
tp210
a(F487
F409
tp211
a(F487
F407
tp212
a(F490
F416
tp213
a(F488
F417
tp214
a(F486
F423
tp215
a(F483
F432
tp216
a(F477
F428
tp217
a(F478
F430
tp218
a(F477
F427
tp219
a(F474
F422
tp220
a(F470
F427
tp221
a(F463
F417
tp222
a(F464
F413
tp223
a(F462
F408
tp224
a(F458
F403
tp225
a(F455
F407
tp226
a(F452
F402
tp227
a(F453
F398
tp228
a(F457
F401
tp229
a(F454
F397
tp230
a(F452
F406
tp231
a(F445
F410
tp232
a(F445
F406
tp233
a(F446
F420
tp234
a(F443
F421
tp235
a(F453
F429
tp236
a(F436
F434
tp237
a(F432
F428
tp238
a(F433
F432
tp239
a(F431
F429
tp240
a(F426
F428
tp241
a(F425
F433
tp242
a(F421
F423
tp243
a(F424
F415
tp244
a(F424
F405
tp245
a(F420
F391
tp246
a(F419
F392
tp247
a(F413
F386
tp248
a(F417
F382
tp249
a(F422
F387
tp250
a(F420
F381
tp251
a(F419
F387
tp252
a(F415
F384
tp253
a(F417
F380
tp254
a(F423
F380
tp255
a(F424
F370
tp256
a(F423
F370
tp257
a(F420
F373
tp258
a(F416
F366
tp259
a(F421
F372
tp260
a(F419
F371
tp261
a(F418
F375
tp262
a(F420
F387
tp263
a(F421
F386
tp264
a(F427
F390
tp265
a(F431
F392
tp266
a(F431
F390
tp267
a(F434
F401
tp268
a(F436
F402
tp269
a(F441
F408
tp270
a(F446
F417
tp271
a(F446
F417
tp272
a(F448
F428
tp273
a(F449
F430
tp274
a(F451
F427
tp275
a(F459
F432
tp276
a(F456
F428
tp277
a(F459
F433
tp278
a(F456
F439
tp279
a(F458
F439
tp280
a(F464
F448
tp281
a(F467
F448
tp282
a(F468
F450
tp283
a(F473
F457
tp284
a(F476
F450
tp285
a(F484
F449
tp286
a(F490
F444
tp287
a(F491
F439
tp288
a(F495
F446
tp289
a(F497
F448
tp290
a(F505
F456
tp291
a(F508
F465
tp292
a(F504
F467
tp293
a(F502
F478
tp294
a(F496
F479
tp295
a(F493
F477
tp296
a(F494
F482
tp297
a(F487
F475
tp298
a(F482
F478
tp299
a(F476
F476
tp300
a(F474
F466
tp301
a(F473
F463
tp302
a(F467
F452
tp303
a(F460
F443
tp304
a(F458
F443
tp305
a(F456
F431
tp306
a(F462
F432
tp307
a(F461
F427
tp308
a(F465
F419
tp309
a(F456
F422
tp310
a(F452
F409
tp311
a(F453
F391
tp312
a(F452
F372
tp313
a(F447
F345
tp314
a(F445
F338
tp315
a(F438
F323
tp316
a(F437
F307
tp317
a(F438
F299
tp318
a(F433
F284
tp319
a(F430
F286
tp320
a(F426
F292
tp321
a(F424
F295
tp322
a(F425
F311
tp323
a(F420
F318
tp324
a(F416
F333
tp325
a(F412
F351
tp326
a(F415
F356
tp327
a(F416
F373
tp328
a(F416
F380
tp329
a(F413
F387
tp330
a(F410
F404
tp331
a(F404
F406
tp332
a(F404
F411
tp333
a(F404
F412
tp334
a(F396
F404
tp335
a(F391
F412
tp336
a(F382
F409
tp337
a(F377
F405
tp338
a(F376
F404
tp339
a(F370
F394
tp340
a(F369
F395
tp341
a(F370
F392
tp342
a(F371
F384
tp343
a(F379
F387
tp344
a(F382
F379
tp345
a(F386
F379
tp346
a(F389
F380
tp347
a(F394
F374
tp348
a(F402
F381
tp349
a(F402
F382
tp350
a(F399
F386
tp351
a(F399
F399
tp352
a(F396
F403
tp353
a(F397
F411
tp354
a(F395
F415
tp355
a(F389
F414
tp356
a(F389
F423
tp357
a(F385
F416
tp358
a(F387
F411
tp359
a(F390
F409
tp360
a(F385
F399
tp361
a(F384
F404
tp362
a(F379
F398
tp363
asS'STRAIGHT'
p364
(lp365
(F376
F388
tp366
a(F378
F386
tp367
a(F375
F376
tp368
a(F376
F376
tp369
a(F373
F381
tp370
a(F373
F381
tp371
a(F378
F396
tp372
a(F379
F403
tp373
a(F381
F415
tp374
a(F379
F432
tp375
a(F379
F436
tp376
a(F386
F442
tp377
a(F389
F446
tp378
a(F389
F446
tp379
a(F392
F458
tp380
a(F393
F459
tp381
a(F403
F461
tp382
a(F411
F466
tp383
a(F416
F469
tp384
a(F421
F480
tp385
a(F418
F479
tp386
a(F427
F475
tp387
a(F433
F481
tp388
a(F433
F476
tp389
a(F435
F480
tp390
a(F436
F480
tp391
a(F437
F472
tp392
a(F443
F472
tp393
a(F441
F465
tp394
a(F438
F463
tp395
a(F435
F468
tp396
a(F431
F461
tp397
a(F433
F465
tp398
a(F432
F462
tp399
a(F430
F464
tp400
a(F431
F472
tp401
a(F430
F469
tp402
a(F436
F470
tp403
a(F440
F471
tp404
a(F440
F464
tp405
a(F444
F471
tp406
a(F443
F466
tp407
a(F447
F466
tp408
a(F452
F471
tp409
a(F453
F469
tp410
a(F452
F477
tp411
a(F452
F485
tp412
a(F458
F479
tp413
a(F465
F483
tp414
a(F465
F473
tp415
a(F467
F467
tp416
a(F464
F464
tp417
a(F461
F450
tp418
a(F463
F445
tp419
a(F459
F431
tp420
a(F455
F415
tp421
a(F452
F417
tp422
a(F445
F403
tp423
a(F449
F394
tp424
a(F448
F385
tp425
a(F444
F373
tp426
a(F443
F380
tp427
a(F439
F375
tp428
a(F440
F373
tp429
a(F441
F378
tp430
a(F436
F374
tp431
a(F434
F384
tp432
a(F429
F388
tp433
a(F427
F385
tp434
a(F430
F391
tp435
a(F427
F386
tp436
a(F427
F390
tp437
a(F429
F396
tp438
a(F430
F390
tp439
a(F437
F393
tp440
a(F439
F385
tp441
a(F441
F389
tp442
a(F439
F403
tp443
a(F439
F420
tp444
a(F445
F444
tp445
a(F447
F462
tp446
a(F446
F476
tp447
a(F446
F496
tp448
a(F439
F497
tp449
a(F441
F490
tp450
a(F442
F501
tp451
a(F440
F493
tp452
a(F441
F494
tp453
a(F440
F487
tp454
a(F442
F479
tp455
a(F448
F482
tp456
a(F444
F473
tp457
a(F442
F475
tp458
a(F438
F475
tp459
a(F437
F464
tp460
a(F434
F466
tp461
a(F430
F458
tp462
a(F425
F454
tp463
a(F421
F459
tp464
a(F418
F450
tp465
a(F421
F450
tp466
a(F423
F444
tp467
a(F424
F436
tp468
a(F428
F440
tp469
a(F431
F434
tp470
a(F441
F433
tp471
a(F447
F433
tp472
a(F446
F423
tp473
a(F447
F427
tp474
a(F445
F421
tp475
a(F448
F415
tp476
a(F451
F421
tp477
a(F449
F421
tp478
a(F449
F430
tp479
a(F450
F438
tp480
a(F454
F437
tp481
a(F463
F447
tp482
a(F466
F444
tp483
a(F465
F444
tp484
a(F463
F450
tp485
a(F459
F442
tp486
a(F461
F443
tp487
a(F459
F433
tp488
a(F455
F423
tp489
a(F454
F426
tp490
a(F449
F417
tp491
a(F450
F409
tp492
a(F451
F402
tp493
a(F447
F394
tp494
a(F444
F400
tp495
a(F439
F399
tp496
a(F438
F393
tp497
a(F442
F397
tp498
a(F438
F391
tp499
a(F438
F396
tp500
a(F432
F398
tp501
a(F428
F390
tp502
a(F430
F392
tp503
a(F426
F383
tp504
a(F422
F383
tp505
a(F417
F388
tp506
a(F414
F378
tp507
a(F421
F378
tp508
a(F423
F375
tp509
a(F422
F372
tp510
a(F426
F380
tp511
a(F428
F377
tp512
a(F436
F380
tp513
a(F441
F381
tp514
a(F443
F379
tp515
a(F446
F390
tp516
a(F451
F391
tp517
a(F467
F392
tp518
a(F467
F396
tp519
a(F469
F388
tp520
a(F472
F395
tp521
a(F473
F394
tp522
a(F470
F384
tp523
a(F471
F384
tp524
a(F466
F375
tp525
a(F463
F377
tp526
a(F457
F381
tp527
a(F455
F386
tp528
a(F460
F381
tp529
a(F459
F376
tp530
a(F458
F372
tp531
a(F460
F379
tp532
a(F459
F373
tp533
a(F467
F377
tp534
a(F472
F377
tp535
a(F471
F373
tp536
a(F471
F384
tp537
a(F469
F379
tp538
a(F469
F374
tp539
a(F470
F372
tp540
a(F465
F363
tp541
a(F464
F369
tp542
a(F459
F368
tp543
a(F458
F366
tp544
a(F455
F369
tp545
a(F449
F363
tp546
a(F445
F366
tp547
a(F439
F367
tp548
a(F433
F357
tp549
a(F433
F357
tp550
a(F431
F348
tp551
a(F431
F346
tp552
a(F433
F357
tp553
a(F434
F360
tp554
a(F442
F372
tp555
a(F448
F379
tp556
a(F452
F384
tp557
a(F455
F402
tp558
a(F452
F403
tp559
a(F456
F404
tp560
a(F460
F406
tp561
a(F456
F401
tp562
a(F456
F410
tp563
a(F454
F410
tp564
a(F454
F409
tp565
a(F458
F417
tp566
a(F456
F419
tp567
a(F454
F428
tp568
a(F453
F437
tp569
a(F451
F436
tp570
a(F453
F450
tp571
a(F447
F451
tp572
a(F440
F454
tp573
a(F432
F461
tp574
a(F425
F457
tp575
a(F422
F460
tp576
a(F418
F457
tp577
a(F412
F451
tp578
a(F408
F456
tp579
a(F404
F447
tp580
a(F407
F441
tp581
a(F410
F434
tp582
a(F409
F424
tp583
a(F409
F427
tp584
a(F406
F418
tp585
a(F411
F415
tp586
a(F418
F412
tp587
a(F419
F404
tp588
a(F423
F410
tp589
a(F422
F412
tp590
a(F425
F410
tp591
a(F432
F418
tp592
a(F431
F418
tp593
a(F429
F424
tp594
a(F428
F435
tp595
a(F427
F435
tp596
a(F430
F443
tp597
a(F429
F445
tp598
a(F426
F448
tp599
a(F427
F459
tp600
a(F426
F455
tp601
a(F433
F457
tp602
a(F439
F456
tp603
a(F442
F451
tp604
a(F447
F457
tp605
a(F451
F452
tp606
a(F458
F446
tp607
a(F465
F445
tp608
a(F468
F437
tp609
a(F471
F438
tp610
a(F470
F438
tp611
a(F469
F425
tp612
a(F473
F428
tp613
a(F470
F423
tp614
a(F466
F424
tp615
a(F459
F427
tp616
a(F452
F426
tp617
a(F453
F430
tp618
a(F452
F430
tp619
a(F447
F432
tp620
a(F446
F443
tp621
a(F442
F440
tp622
a(F444
F445
tp623
a(F441
F450
tp624
a(F436
F454
tp625
a(F435
F470
tp626
a(F431
F473
tp627
a(F436
F477
tp628
a(F442
F482
tp629
a(F444
F477
tp630
a(F448
F483
tp631
a(F449
F481
tp632
a(F457
F478
tp633
a(F466
F482
tp634
a(F466
F479
tp635
a(F468
F480
tp636
a(F469
F480
tp637
a(F469
F470
tp638
a(F473
F469
tp639
a(F469
F461
tp640
a(F468
F458
tp641
a(F466
F465
tp642
a(F465
F463
tp643
a(F466
F468
tp644
a(F463
F470
tp645
a(F459
F468
tp646
a(F454
F478
tp647
a(F447
F473
tp648
a(F445
F471
tp649
a(F444
F471
tp650
a(F439
F463
tp651
a(F440
F469
tp652
a(F436
F461
tp653
a(F436
F449
tp654
a(F439
F446
tp655
a(F434
F435
tp656
a(F433
F432
tp657
a(F431
F434
tp658
a(F429
F436
tp659
a(F435
F451
tp660
a(F434
F456
tp661
a(F434
F461
tp662
a(F435
F470
tp663
a(F436
F467
tp664
a(F443
F470
tp665
a(F446
F469
tp666
a(F445
F464
tp667
a(F448
F471
tp668
a(F447
F465
tp669
a(F449
F463
tp670
a(F451
F464
tp671
a(F449
F459
tp672
a(F451
F466
tp673
a(F449
F462
tp674
a(F453
F452
tp675
a(F460
F450
tp676
a(F460
F442
tp677
a(F464
F443
tp678
a(F463
F440
tp679
a(F463
F442
tp680
a(F468
F437
tp681
a(F467
F436
tp682
a(F463
F439
tp683
a(F462
F448
tp684
a(F460
F447
tp685
a(F467
F456
tp686
a(F466
F458
tp687
a(F462
F460
tp688
a(F459
F470
tp689
a(F454
F467
tp690
a(F454
F469
tp691
a(F453
F467
tp692
a(F449
F460
tp693
a(F447
F465
tp694
a(F441
F455
tp695
a(F441
F446
tp696
a(F445
F443
tp697
a(F445
F433
tp698
a(F447
F438
tp699
a(F447
F439
tp700
a(F449
F436
tp701
a(F453
F442
tp702
a(F451
F439
tp703
a(F450
F444
tp704
a(F448
F450
tp705
a(F445
F445
tp706
a(F448
F449
tp707
a(F447
F446
tp708
a(F443
F445
tp709
a(F441
F453
tp710
a(F437
F450
tp711
a(F441
F453
tp712
a(F442
F451
tp713
a(F438
F446
tp714
a(F440
F450
tp715
a(F436
F443
tp716
a(F440
F437
tp717
a(F443
F435
tp718
a(F439
F427
tp719
a(F438
F429
tp720
a(F436
F424
tp721
a(F439
F416
tp722
a(F447
F419
tp723
a(F451
F410
tp724
a(F456
F410
tp725
asS'UP'
p726
(lp727
(F459
F412
tp728
a(F462
F406
tp729
a(F471
F409
tp730
a(F473
F407
tp731
a(F472
F407
tp732
a(F472
F417
tp733
a(F467
F413
tp734
a(F468
F416
tp735
a(F466
F411
tp736
a(F463
F402
tp737
a(F463
F403
tp738
a(F463
F388
tp739
a(F467
F375
tp740
a(F471
F364
tp741
a(F469
F348
tp742
a(F469
F349
tp743
a(F467
F344
tp744
a(F467
F342
tp745
a(F468
F347
tp746
a(F463
F347
tp747
a(F460
F356
tp748
a(F455
F361
tp749
a(F452
F357
tp750
a(F455
F363
tp751
a(F451
F360
tp752
a(F452
F360
tp753
a(F446
F369
tp754
a(F442
F365
tp755
a(F443
F373
tp756
a(F439
F375
tp757
a(F433
F374
tp758
a(F430
F385
tp759
a(F427
F381
tp760
a(F429
F381
tp761
a(F430
F383
tp762
a(F427
F378
tp763
a(F429
F389
tp764
a(F425
F389
tp765
a(F428
F392
tp766
a(F433
F402
tp767
a(F430
F404
tp768
a(F429
F415
tp769
a(F423
F421
tp770
a(F416
F416
tp771
a(F415
F420
tp772
a(F408
F414
tp773
a(F403
F413
tp774
a(F400
F415
tp775
a(F394
F410
tp776
a(F395
F413
tp777
a(F394
F411
tp778
a(F392
F409
tp779
a(F392
F418
tp780
a(F390
F413
tp781
a(F395
F412
tp782
a(F398
F410
tp783
a(F398
F406
tp784
a(F400
F416
tp785
a(F400
F416
tp786
a(F404
F416
tp787
a(F409
F421
tp788
a(F407
F418
tp789
a(F407
F427
tp790
a(F405
F430
tp791
a(F406
F429
tp792
a(F412
F439
tp793
a(F414
F438
tp794
a(F413
F442
tp795
a(F414
F447
tp796
a(F415
F443
tp797
a(F423
F448
tp798
a(F427
F445
tp799
a(F428
F443
tp800
a(F430
F451
tp801
a(F431
F444
tp802
a(F439
F443
tp803
a(F442
F440
tp804
a(F445
F432
tp805
a(F448
F437
tp806
a(F448
F430
tp807
a(F455
F427
tp808
a(F458
F429
tp809
a(F454
F422
tp810
a(F454
F427
tp811
a(F450
F425
tp812
a(F450
F418
tp813
a(F456
F417
tp814
a(F456
F407
tp815
a(F456
F409
tp816
a(F456
F410
tp817
a(F456
F408
tp818
a(F461
F416
tp819
a(F460
F415
tp820
a(F459
F415
tp821
a(F456
F421
tp822
a(F453
F413
tp823
a(F455
F414
tp824
a(F455
F414
tp825
a(F449
F407
tp826
a(F448
F414
tp827
a(F444
F404
tp828
a(F430
F451
tp829
a(F429
F447
tp830
a(F425
F445
tp831
a(F424
F452
tp832
a(F417
F448
tp833
a(F418
F452
tp834
a(F416
F450
tp835
a(F411
F444
tp836
a(F408
F450
tp837
a(F401
F439
tp838
a(F402
F432
tp839
a(F405
F427
tp840
a(F406
F418
tp841
a(F412
F423
tp842
a(F412
F417
tp843
a(F416
F409
tp844
a(F425
F412
tp845
a(F426
F403
tp846
a(F428
F403
tp847
a(F428
F400
tp848
a(F429
F390
tp849
a(F435
F388
tp850
a(F435
F375
tp851
a(F435
F370
tp852
a(F435
F374
tp853
a(F433
F367
tp854
a(F437
F371
tp855
a(F433
F370
tp856
a(F428
F372
tp857
a(F425
F377
tp858
a(F419
F374
tp859
a(F417
F377
tp860
a(F413
F382
tp861
a(F405
F378
tp862
a(F402
F389
tp863
a(F396
F389
tp864
a(F394
F386
tp865
a(F398
F390
tp866
a(F397
F383
tp867
a(F396
F389
tp868
a(F394
F388
tp869
a(F395
F382
tp870
a(F400
F384
tp871
a(F400
F379
tp872
a(F402
F383
tp873
a(F402
F389
tp874
a(F401
F385
tp875
a(F408
F394
tp876
a(F408
F396
tp877
a(F410
F400
tp878
a(F409
F415
tp879
a(F409
F417
tp880
a(F413
F423
tp881
a(F415
F428
tp882
a(F413
F430
tp883
a(F413
F443
tp884
a(F410
F445
tp885
a(F413
F447
tp886
a(F416
F452
tp887
a(F415
F453
tp888
a(F418
F464
tp889
a(F418
F465
tp890
a(F422
F459
tp891
a(F427
F463
tp892
a(F429
F460
tp893
a(F431
F465
tp894
a(F429
F471
tp895
a(F426
F468
tp896
a(F429
F474
tp897
a(F426
F471
tp898
a(F423
F468
tp899
a(F423
F473
tp900
a(F417
F466
tp901
a(F419
F467
tp902
a(F419
F465
tp903
a(F416
F472
tp904
a(F416
F468
tp905
a(F412
F462
tp906
a(F414
F459
tp907
a(F418
F459
tp908
a(F417
F452
tp909
a(F422
F460
tp910
a(F421
F459
tp911
a(F425
F454
tp912
a(F432
F460
tp913
a(F434
F458
tp914
a(F433
F466
tp915
a(F429
F472
tp916
a(F425
F466
tp917
a(F429
F469
tp918
a(F430
F462
tp919
a(F428
F460
tp920
a(F430
F467
tp921
a(F432
F469
tp922
a(F440
F481
tp923
a(F443
F493
tp924
a(F448
F504
tp925
a(F445
F524
tp926
a(F441
F528
tp927
a(F444
F535
tp928
a(F447
F543
tp929
a(F442
F543
tp930
a(F439
F552
tp931
a(F432
F545
tp932
a(F431
F541
tp933
a(F432
F535
tp934
a(F425
F521
tp935
a(F420
F516
tp936
a(F413
F506
tp937
a(F407
F490
tp938
a(F411
F489
tp939
a(F409
F477
tp940
a(F409
F474
tp941
a(F412
F478
tp942
a(F413
F475
tp943
a(F418
F480
tp944
a(F419
F479
tp945
a(F416
F475
tp946
a(F418
F483
tp947
a(F420
F482
tp948
a(F428
F480
tp949
a(F433
F479
tp950
a(F434
F483
tp951
a(F435
F483
tp952
a(F431
F477
tp953
a(F429
F469
tp954
a(F433
F469
tp955
a(F431
F458
tp956
a(F431
F461
tp957
a(F427
F455
tp958
a(F425
F446
tp959
a(F428
F448
tp960
a(F427
F444
tp961
a(F417
F447
tp962
a(F424
F453
tp963
a(F423
F448
tp964
a(F430
F451
tp965
a(F430
F446
tp966
a(F431
F441
tp967
a(F434
F444
tp968
a(F436
F433
tp969
a(F442
F425
tp970
a(F445
F412
tp971
a(F442
F398
tp972
a(F444
F398
tp973
a(F440
F387
tp974
a(F446
F379
tp975
a(F449
F380
tp976
a(F445
F372
tp977
a(F447
F376
tp978
a(F443
F374
tp979
a(F444
F369
tp980
a(F448
F376
tp981
a(F444
F370
tp982
a(F441
F372
tp983
a(F438
F375
tp984
a(F435
F368
tp985
a(F439
F368
tp986
a(F438
F362
tp987
a(F434
F359
tp988
a(F432
F368
tp989
a(F425
F364
tp990
a(F426
F368
tp991
a(F427
F368
tp992
a(F427
F362
tp993
a(F424
F372
tp994
a(F419
F363
tp995
a(F420
F361
tp996
a(F421
F355
tp997
a(F418
F347
tp998
a(F418
F350
tp999
a(F418
F344
tp1000
a(F419
F334
tp1001
a(F427
F336
tp1002
a(F425
F325
tp1003
a(F429
F326
tp1004
a(F432
F328
tp1005
a(F438
F327
tp1006
a(F449
F330
tp1007
a(F452
F327
tp1008
a(F453
F326
tp1009
a(F447
F337
tp1010
a(F439
F335
tp1011
a(F438
F342
tp1012
a(F432
F342
tp1013
a(F421
F343
tp1014
a(F413
F357
tp1015
a(F402
F359
tp1016
a(F401
F369
tp1017
a(F394
F384
tp1018
a(F388
F394
tp1019
a(F375
F418
tp1020
a(F367
F431
tp1021
a(F360
F442
tp1022
a(F358
F475
tp1023
a(F348
F499
tp1024
a(F340
F529
tp1025
a(F332
F553
tp1026
a(F326
F572
tp1027
a(F325
F588
tp1028
a(F317
F597
tp1029
a(F311
F611
tp1030
a(F306
F619
tp1031
a(F300
F612
tp1032
a(F302
F610
tp1033
a(F298
F602
tp1034
a(F296
F592
tp1035
a(F294
F588
tp1036
a(F290
F573
tp1037
a(F294
F562
tp1038
a(F297
F552
tp1039
a(F296
F538
tp1040
a(F298
F536
tp1041
a(F296
F525
tp1042
a(F298
F514
tp1043
a(F304
F509
tp1044
a(F304
F496
tp1045
a(F307
F493
tp1046
a(F307
F485
tp1047
a(F310
F469
tp1048
a(F322
F468
tp1049
a(F326
F457
tp1050
a(F335
F452
tp1051
a(F344
F453
tp1052
a(F355
F446
tp1053
a(F371
F444
tp1054
a(F383
F435
tp1055
a(F392
F425
tp1056
a(F399
F427
tp1057
a(F403
F416
tp1058
a(F415
F413
tp1059
a(F423
F406
tp1060
a(F428
F400
tp1061
a(F435
F402
tp1062
a(F438
F396
tp1063
a(F446
F390
tp1064
a(F458
F390
tp1065
a(F463
F379
tp1066
a(F472
F382
tp1067
a(F477
F383
tp1068
a(F485
F384
tp1069
a(F498
F398
tp1070
a(F503
F405
tp1071
a(F509
F417
tp1072
a(F514
F430
tp1073
a(F519
F433
tp1074
a(F527
F443
tp1075
a(F530
F445
tp1076
a(F533
F442
tp1077
a(F536
F453
tp1078
a(F538
F450
tp1079
a(F548
F459
tp1080
a(F556
F465
tp1081
a(F556
F464
tp1082
a(F560
F474
tp1083
a(F557
F470
tp1084
a(F561
F471
tp1085
a(F566
F475
tp1086
a(F565
F469
tp1087
asS'BLINK'
p1088
(lp1089
(F569
F473
tp1090
a(F567
F466
tp1091
a(F566
F458
tp1092
a(F567
F459
tp1093
a(F560
F449
tp1094
a(F556
F445
tp1095
a(F552
F441
tp1096
a(F547
F433
tp1097
a(F548
F436
tp1098
a(F542
F433
tp1099
a(F533
F439
tp1100
a(F524
F451
tp1101
a(F517
F455
tp1102
a(F515
F465
tp1103
a(F514
F469
tp1104
a(F507
F472
tp1105
a(F506
F482
tp1106
a(F502
F479
tp1107
a(F505
F481
tp1108
a(F511
F485
tp1109
a(F512
F484
tp1110
a(F516
F491
tp1111
a(F516
F486
tp1112
a(F523
F478
tp1113
a(F534
F481
tp1114
a(F536
F477
tp1115
a(F539
F481
tp1116
a(F539
F481
tp1117
a(F543
F478
tp1118
a(F551
F483
tp1119
a(F552
F479
tp1120
a(F552
F478
tp1121
a(F551
F480
tp1122
a(F547
F473
tp1123
a(F550
F476
tp1124
a(F547
F474
tp1125
a(F540
F469
tp1126
a(F535
F472
tp1127
a(F528
F461
tp1128
a(F527
F457
tp1129
a(F528
F454
tp1130
a(F523
F450
tp1131
a(F523
F454
tp1132
a(F519
F447
tp1133
a(F522
F444
tp1134
a(F528
F447
tp1135
a(F526
F440
tp1136
a(F525
F442
tp1137
a(F519
F437
tp1138
a(F517
F427
tp1139
a(F525
F429
tp1140
a(F523
F420
tp1141
a(F524
F420
tp1142
a(F524
F420
tp1143
a(F519
F409
tp1144
a(F521
F405
tp1145
a(F518
F395
tp1146
a(F514
F387
tp1147
a(F513
F388
tp1148
a(F511
F379
tp1149
a(F519
F379
tp1150
a(F524
F377
tp1151
a(F524
F376
tp1152
a(F526
F381
tp1153
a(F523
F377
tp1154
a(F525
F374
tp1155
a(F525
F377
tp1156
a(F520
F370
tp1157
a(F519
F376
tp1158
a(F514
F374
tp1159
a(F509
F368
tp1160
a(F509
F371
tp1161
a(F502
F365
tp1162
a(F497
F367
tp1163
a(F491
F367
tp1164
a(F487
F361
tp1165
a(F491
F365
tp1166
a(F487
F362
tp1167
a(F485
F366
tp1168
a(F483
F377
tp1169
a(F479
F376
tp1170
a(F485
F379
tp1171
a(F488
F381
tp1172
a(F488
F380
tp1173
a(F490
F390
tp1174
a(F488
F387
tp1175
a(F492
F390
tp1176
a(F497
F397
tp1177
a(F495
F393
tp1178
a(F496
F403
tp1179
a(F493
F402
tp1180
a(F494
F399
tp1181
a(F496
F404
tp1182
a(F491
F398
tp1183
a(F490
F403
tp1184
a(F487
F404
tp1185
a(F484
F399
tp1186
a(F488
F403
tp1187
a(F486
F400
tp1188
a(F443
F426
tp1189
a(F440
F419
tp1190
a(F444
F421
tp1191
a(F441
F415
tp1192
a(F439
F421
tp1193
a(F436
F422
tp1194
a(F439
F417
tp1195
a(F439
F420
tp1196
a(F437
F413
tp1197
a(F435
F414
tp1198
a(F431
F420
tp1199
a(F427
F413
tp1200
a(F432
F419
tp1201
a(F433
F419
tp1202
a(F431
F417
tp1203
a(F432
F427
tp1204
a(F431
F425
tp1205
a(F437
F428
tp1206
a(F441
F428
tp1207
a(F440
F422
tp1208
a(F440
F427
tp1209
a(F435
F422
tp1210
a(F437
F418
tp1211
a(F440
F424
tp1212
a(F436
F420
tp1213
a(F434
F428
tp1214
a(F427
F426
tp1215
a(F424
F419
tp1216
a(F427
F419
tp1217
a(F425
F408
tp1218
a(F422
F404
tp1219
a(F421
F404
tp1220
a(F418
F395
tp1221
a(F421
F399
tp1222
a(F419
F395
tp1223
a(F417
F393
tp1224
a(F413
F401
tp1225
a(F410
F399
tp1226
a(F413
F400
tp1227
a(F417
F401
tp1228
a(F415
F397
tp1229
a(F418
F408
tp1230
a(F418
F406
tp1231
a(F421
F410
tp1232
a(F423
F417
tp1233
a(F427
F416
tp1234
a(F430
F427
tp1235
a(F428
F429
tp1236
a(F427
F425
tp1237
a(F431
F432
tp1238
a(F426
F429
tp1239
a(F423
F433
tp1240
a(F420
F439
tp1241
a(F421
F432
tp1242
a(F420
F436
tp1243
a(F418
F431
tp1244
a(F418
F429
tp1245
a(F421
F436
tp1246
a(F422
F431
tp1247
a(F429
F436
tp1248
a(F434
F436
tp1249
a(F433
F435
tp1250
a(F435
F446
tp1251
a(F433
F444
tp1252
a(F435
F442
tp1253
a(F437
F441
tp1254
a(F435
F432
tp1255
a(F440
F440
tp1256
a(F435
F438
tp1257
a(F435
F434
tp1258
a(F438
F439
tp1259
a(F435
F435
tp1260
a(F435
F442
tp1261
a(F434
F447
tp1262
a(F436
F442
tp1263
a(F444
F444
tp1264
a(F447
F439
tp1265
a(F450
F436
tp1266
a(F454
F445
tp1267
a(F454
F442
tp1268
a(F460
F446
tp1269
a(F462
F445
tp1270
a(F461
F443
tp1271
a(F458
F450
tp1272
a(F456
F446
tp1273
a(F458
F445
tp1274
a(F459
F447
tp1275
a(F455
F442
tp1276
a(F456
F451
tp1277
a(F449
F447
tp1278
a(F451
F440
tp1279
a(F453
F439
tp1280
a(F450
F433
tp1281
a(F450
F437
tp1282
a(F449
F438
tp1283
a(F452
F434
tp1284
a(F459
F443
tp1285
a(F460
F441
tp1286
a(F461
F444
tp1287
a(F462
F450
tp1288
a(F460
F445
tp1289
a(F463
F447
tp1290
a(F462
F444
tp1291
a(F457
F439
tp1292
a(F457
F446
tp1293
a(F451
F443
tp1294
a(F454
F444
tp1295
a(F457
F444
tp1296
a(F454
F440
tp1297
a(F458
F449
tp1298
a(F454
F442
tp1299
a(F456
F437
tp1300
a(F459
F437
tp1301
a(F455
F429
tp1302
a(F455
F433
tp1303
a(F454
F433
tp1304
a(F457
F428
tp1305
a(F466
F433
tp1306
a(F466
F426
tp1307
a(F466
F428
tp1308
a(F465
F430
tp1309
a(F463
F423
tp1310
a(F468
F431
tp1311
a(F465
F431
tp1312
a(F458
F432
tp1313
a(F455
F443
tp1314
a(F447
F442
tp1315
a(F445
F448
tp1316
a(F440
F450
tp1317
a(F432
F450
tp1318
a(F428
F461
tp1319
a(F420
F456
tp1320
a(F421
F455
tp1321
a(F420
F459
tp1322
a(F416
F453
tp1323
a(F415
F462
tp1324
a(F411
F460
tp1325
a(F409
F452
tp1326
a(F412
F453
tp1327
a(F411
F448
tp1328
a(F412
F449
tp1329
a(F412
F450
tp1330
a(F413
F443
tp1331
a(F418
F448
tp1332
a(F416
F443
tp1333
a(F417
F443
tp1334
a(F416
F449
tp1335
a(F413
F445
tp1336
a(F417
F446
tp1337
a(F419
F443
tp1338
a(F418
F439
tp1339
a(F420
F448
tp1340
a(F417
F442
tp1341
a(F420
F442
tp1342
a(F423
F442
tp1343
a(F422
F435
tp1344
a(F426
F442
tp1345
a(F424
F441
tp1346
a(F425
F435
tp1347
a(F427
F434
tp1348
a(F424
F425
tp1349
a(F424
F427
tp1350
a(F423
F431
tp1351
a(F422
F422
tp1352
a(F426
F425
tp1353
a(F425
F418
tp1354
a(F424
F417
tp1355
a(F424
F424
tp1356
a(F421
F418
tp1357
a(F426
F423
tp1358
a(F427
F423
tp1359
a(F425
F424
tp1360
a(F427
F435
tp1361
a(F426
F431
tp1362
a(F429
F428
tp1363
a(F433
F425
tp1364
a(F435
F420
tp1365
a(F436
F428
tp1366
a(F437
F425
tp1367
a(F442
F424
tp1368
a(F452
F431
tp1369
a(F452
F428
tp1370
a(F454
F438
tp1371
a(F453
F439
tp1372
a(F451
F436
tp1373
a(F454
F439
tp1374
a(F450
F432
tp1375
a(F448
F432
tp1376
a(F446
F437
tp1377
a(F446
F430
tp1378
a(F450
F433
tp1379
a(F453
F431
tp1380
a(F452
F428
tp1381
a(F452
F434
tp1382
a(F449
F430
tp1383
a(F451
F427
tp1384
a(F451
F423
tp1385
a(F448
F418
tp1386
a(F449
F427
tp1387
a(F443
F423
tp1388
a(F441
F419
tp1389
a(F441
F419
tp1390
a(F438
F414
tp1391
a(F438
F423
tp1392
a(F434
F424
tp1393
a(F430
F421
tp1394
a(F433
F427
tp1395
a(F430
F421
tp1396
a(F430
F425
tp1397
a(F430
F432
tp1398
a(F429
F429
tp1399
a(F433
F435
tp1400
a(F433
F433
tp1401
a(F433
F433
tp1402
a(F434
F441
tp1403
a(F435
F436
tp1404
a(F435
F438
tp1405
a(F436
F437
tp1406
a(F436
F433
tp1407
a(F437
F445
tp1408
a(F433
F440
tp1409
a(F435
F437
tp1410
a(F440
F436
tp1411
a(F441
F432
tp1412
a(F447
F442
tp1413
a(F448
F442
tp1414
a(F449
F438
tp1415
a(F453
F443
tp1416
a(F451
F438
tp1417
a(F452
F444
tp1418
a(F451
F447
tp1419
a(F452
F448
tp1420
a(F460
F454
tp1421
a(F462
F451
tp1422
a(F463
F448
tp1423
a(F464
F454
tp1424
a(F462
F450
tp1425
a(F467
F454
tp1426
a(F466
F453
tp1427
a(F463
F453
tp1428
a(F461
F465
tp1429
a(F454
F465
tp1430
a(F456
F465
tp1431
a(F459
F470
tp1432
a(F456
F465
tp1433
a(F460
F474
tp1434
a(F458
F471
tp1435
a(F459
F465
tp1436
a(F463
F467
tp1437
a(F460
F460
tp1438
a(F459
F462
tp1439
a(F456
F461
tp1440
a(F455
F454
tp1441
a(F459
F457
tp1442
a(F456
F450
tp1443
a(F455
F449
tp1444
a(F453
F452
tp1445
a(F449
F443
tp1446
a(F452
F440
tp1447
a(F449
F430
tp1448
a(F445
F417
tp1449
asS'DOWN'
p1450
(lp1451
(F443
F423
tp1452
a(F436
F414
tp1453
a(F436
F413
tp1454
a(F436
F414
tp1455
a(F432
F409
tp1456
a(F433
F418
tp1457
a(F431
F416
tp1458
a(F431
F416
tp1459
a(F437
F419
tp1460
a(F436
F411
tp1461
a(F437
F416
tp1462
a(F436
F418
tp1463
a(F437
F417
tp1464
a(F438
F425
tp1465
a(F434
F418
tp1466
a(F431
F419
tp1467
a(F428
F422
tp1468
a(F423
F414
tp1469
a(F422
F416
tp1470
a(F416
F409
tp1471
a(F410
F406
tp1472
a(F405
F414
tp1473
a(F400
F412
tp1474
a(F402
F409
tp1475
a(F403
F405
tp1476
a(F401
F405
tp1477
a(F403
F414
tp1478
a(F401
F411
tp1479
a(F402
F404
tp1480
a(F405
F410
tp1481
a(F403
F406
tp1482
a(F405
F414
tp1483
a(F403
F417
tp1484
a(F404
F415
tp1485
a(F410
F420
tp1486
a(F404
F415
tp1487
a(F404
F416
tp1488
a(F403
F419
tp1489
a(F404
F415
tp1490
a(F412
F418
tp1491
a(F413
F416
tp1492
a(F416
F419
tp1493
a(F418
F432
tp1494
a(F419
F432
tp1495
a(F426
F437
tp1496
a(F432
F436
tp1497
a(F429
F432
tp1498
a(F430
F440
tp1499
a(F428
F435
tp1500
a(F431
F430
tp1501
a(F433
F433
tp1502
a(F428
F429
tp1503
a(F428
F438
tp1504
a(F423
F438
tp1505
a(F423
F434
tp1506
a(F429
F437
tp1507
a(F429
F429
tp1508
a(F432
F432
tp1509
a(F434
F432
tp1510
a(F436
F425
tp1511
a(F442
F429
tp1512
a(F442
F421
tp1513
a(F442
F416
tp1514
a(F441
F427
tp1515
a(F438
F423
tp1516
a(F444
F429
tp1517
a(F444
F430
tp1518
a(F441
F428
tp1519
a(F441
F438
tp1520
a(F438
F437
tp1521
a(F438
F440
tp1522
a(F441
F442
tp1523
a(F435
F436
tp1524
a(F434
F442
tp1525
a(F430
F440
tp1526
a(F429
F437
tp1527
a(F434
F444
tp1528
a(F429
F440
tp1529
a(F428
F446
tp1530
a(F424
F445
tp1531
a(F423
F441
tp1532
a(F427
F443
tp1533
a(F426
F438
tp1534
a(F422
F439
tp1535
a(F428
F446
tp1536
a(F427
F444
tp1537
a(F434
F448
tp1538
a(F436
F444
tp1539
a(F437
F441
tp1540
a(F443
F448
tp1541
a(F444
F442
tp1542
a(F450
F441
tp1543
a(F456
F441
tp1544
a(F457
F436
tp1545
a(F461
F447
tp1546
a(F459
F447
tp1547
a(F461
F446
tp1548
a(F465
F451
tp1549
a(F407
F306
tp1550
a(F405
F311
tp1551
a(F407
F322
tp1552
a(F405
F333
tp1553
a(F399
F349
tp1554
a(F397
F366
tp1555
a(F394
F382
tp1556
a(F398
F400
tp1557
a(F399
F415
tp1558
a(F398
F427
tp1559
a(F396
F439
tp1560
a(F393
F448
tp1561
a(F399
F455
tp1562
a(F401
F462
tp1563
a(F402
F466
tp1564
a(F407
F470
tp1565
a(F407
F472
tp1566
a(F410
F473
tp1567
a(F416
F473
tp1568
a(F412
F472
tp1569
a(F411
F471
tp1570
a(F407
F468
tp1571
a(F401
F467
tp1572
a(F401
F463
tp1573
a(F395
F464
tp1574
a(F389
F464
tp1575
a(F384
F464
tp1576
a(F378
F463
tp1577
a(F380
F463
tp1578
a(F381
F463
tp1579
a(F380
F463
tp1580
a(F385
F464
tp1581
a(F388
F464
tp1582
a(F401
F466
tp1583
a(F406
F467
tp1584
a(F407
F467
tp1585
a(F413
F468
tp1586
a(F412
F468
tp1587
a(F415
F468
tp1588
a(F420
F468
tp1589
a(F417
F468
tp1590
a(F415
F467
tp1591
a(F410
F464
tp1592
a(F403
F459
tp1593
a(F404
F456
tp1594
a(F398
F450
tp1595
a(F390
F447
tp1596
a(F387
F444
tp1597
a(F382
F442
tp1598
a(F383
F441
tp1599
a(F382
F441
tp1600
a(F379
F442
tp1601
a(F381
F446
tp1602
a(F377
F446
tp1603
a(F380
F448
tp1604
a(F379
F443
tp1605
a(F376
F435
tp1606
a(F377
F430
tp1607
a(F374
F421
tp1608
a(F379
F416
tp1609
a(F382
F410
tp1610
a(F380
F402
tp1611
a(F383
F399
tp1612
a(F382
F393
tp1613
a(F384
F390
tp1614
a(F391
F391
tp1615
a(F394
F391
tp1616
a(F396
F399
tp1617
a(F397
F404
tp1618
a(F398
F412
tp1619
a(F409
F423
tp1620
a(F417
F431
tp1621
a(F422
F440
tp1622
a(F429
F446
tp1623
a(F431
F450
tp1624
a(F439
F455
tp1625
a(F443
F456
tp1626
a(F442
F456
tp1627
a(F443
F457
tp1628
a(F442
F454
tp1629
a(F444
F450
tp1630
a(F449
F448
tp1631
a(F448
F442
tp1632
a(F449
F441
tp1633
a(F446
F435
tp1634
a(F446
F429
tp1635
a(F453
F425
tp1636
a(F455
F415
tp1637
a(F460
F408
tp1638
a(F463
F403
tp1639
a(F464
F401
tp1640
a(F468
F406
tp1641
a(F468
F409
tp1642
a(F467
F417
tp1643
a(F466
F426
tp1644
a(F464
F434
tp1645
a(F469
F443
tp1646
a(F471
F449
tp1647
a(F471
F453
tp1648
a(F475
F458
tp1649
a(F473
F457
tp1650
a(F475
F460
tp1651
a(F477
F461
tp1652
a(F474
F461
tp1653
a(F473
F462
tp1654
a(F471
F460
tp1655
a(F470
F460
tp1656
a(F474
F460
tp1657
a(F471
F457
tp1658
a(F468
F457
tp1659
a(F463
F455
tp1660
a(F463
F455
tp1661
a(F469
F457
tp1662
a(F470
F457
tp1663
a(F470
F458
tp1664
a(F472
F461
tp1665
a(F469
F462
tp1666
a(F478
F463
tp1667
a(F478
F461
tp1668
a(F473
F458
tp1669
a(F470
F456
tp1670
a(F464
F452
tp1671
a(F466
F451
tp1672
a(F469
F450
tp1673
a(F468
F449
tp1674
a(F468
F452
tp1675
a(F464
F447
tp1676
a(F465
F445
tp1677
a(F471
F444
tp1678
a(F471
F442
tp1679
a(F472
F444
tp1680
a(F471
F441
tp1681
a(F472
F439
tp1682
a(F476
F439
tp1683
a(F474
F433
tp1684
a(F473
F429
tp1685
a(F475
F425
tp1686
a(F474
F418
tp1687
a(F480
F419
tp1688
a(F481
F416
tp1689
a(F482
F415
tp1690
a(F483
F416
tp1691
a(F480
F414
tp1692
a(F486
F416
tp1693
a(F489
F413
tp1694
a(F488
F407
tp1695
a(F494
F407
tp1696
a(F496
F402
tp1697
a(F501
F404
tp1698
a(F502
F406
tp1699
a(F498
F407
tp1700
a(F497
F412
tp1701
a(F491
F414
tp1702
a(F488
F414
tp1703
a(F491
F419
tp1704
a(F488
F412
tp1705
a(F486
F411
tp1706
a(F480
F407
tp1707
a(F471
F399
tp1708
a(F469
F398
tp1709
a(F468
F395
tp1710
a(F467
F393
tp1711
a(F470
F395
tp1712
a(F471
F395
tp1713
a(F481
F403
tp1714
a(F486
F407
tp1715
a(F480
F410
tp1716
a(F486
F416
tp1717
a(F481
F416
tp1718
a(F481
F414
tp1719
a(F483
F420
tp1720
a(F478
F417
tp1721
a(F474
F419
tp1722
a(F465
F416
tp1723
a(F462
F413
tp1724
a(F465
F419
tp1725
a(F463
F418
tp1726
a(F463
F421
tp1727
a(F460
F423
tp1728
a(F456
F422
tp1729
a(F455
F427
tp1730
a(F448
F426
tp1731
a(F440
F425
tp1732
a(F435
F424
tp1733
a(F429
F422
tp1734
a(F432
F429
tp1735
a(F432
F430
tp1736
a(F430
F432
tp1737
a(F428
F437
tp1738
a(F423
F435
tp1739
a(F427
F438
tp1740
a(F426
F439
tp1741
a(F422
F432
tp1742
a(F422
F441
tp1743
a(F417
F437
tp1744
a(F416
F436
tp1745
a(F416
F439
tp1746
a(F412
F432
tp1747
a(F411
F431
tp1748
a(F407
F427
tp1749
a(F403
F422
tp1750
a(F409
F426
tp1751
a(F409
F424
tp1752
a(F411
F426
tp1753
a(F412
F430
tp1754
a(F412
F428
tp1755
a(F417
F433
tp1756
a(F420
F432
tp1757
a(F421
F429
tp1758
a(F421
F431
tp1759
a(F415
F427
tp1760
a(F418
F430
tp1761
a(F419
F431
tp1762
a(F417
F432
tp1763
a(F419
F439
tp1764
a(F419
F439
tp1765
a(F425
F438
tp1766
a(F435
F444
tp1767
a(F441
F439
tp1768
a(F449
F443
tp1769
a(F450
F439
tp1770
a(F451
F434
tp1771
a(F452
F438
tp1772
a(F453
F438
tp1773
a(F453
F443
tp1774
a(F452
F449
tp1775
a(F451
F452
tp1776
a(F457
F462
tp1777
a(F456
F464
tp1778
a(F452
F461
tp1779
a(F452
F464
tp1780
a(F448
F454
tp1781
a(F450
F445
tp1782
a(F449
F430
tp1783
a(F451
F410
tp1784
a(F447
F400
tp1785
a(F443
F384
tp1786
a(F444
F374
tp1787
a(F445
F373
tp1788
a(F441
F363
tp1789
a(F440
F366
tp1790
a(F432
F366
tp1791
a(F430
F370
tp1792
a(F434
F386
tp1793
a(F431
F400
tp1794
a(F429
F423
tp1795
a(F429
F443
tp1796
a(F432
F461
tp1797
a(F443
F485
tp1798
a(F444
F498
tp1799
a(F444
F507
tp1800
a(F444
F517
tp1801
a(F441
F520
tp1802
a(F443
F526
tp1803
a(F444
F526
tp1804
a(F444
F524
tp1805
a(F444
F527
tp1806
a(F445
F525
tp1807
a(F446
F538
tp1808
a(F449
F535
tp1809
a(F446
F532
tp1810
a(F447
F535
tp1811
asS'LEFT'
p1812
(lp1813
(F445
F531
tp1814
a(F452
F532
tp1815
a(F460
F536
tp1816
a(F460
F537
tp1817
a(F462
F540
tp1818
a(F459
F538
tp1819
a(F460
F536
tp1820
a(F465
F538
tp1821
a(F468
F538
tp1822
a(F472
F539
tp1823
a(F478
F542
tp1824
a(F479
F539
tp1825
a(F488
F541
tp1826
a(F490
F537
tp1827
a(F487
F532
tp1828
a(F484
F531
tp1829
a(F479
F526
tp1830
a(F478
F521
tp1831
a(F478
F518
tp1832
a(F479
F510
tp1833
a(F482
F506
tp1834
a(F482
F495
tp1835
a(F485
F485
tp1836
a(F492
F481
tp1837
a(F491
F470
tp1838
a(F491
F466
tp1839
a(F489
F461
tp1840
a(F488
F455
tp1841
a(F494
F458
tp1842
a(F492
F453
tp1843
a(F491
F452
tp1844
a(F484
F450
tp1845
a(F476
F441
tp1846
a(F473
F443
tp1847
a(F466
F436
tp1848
a(F463
F429
tp1849
a(F460
F429
tp1850
a(F457
F420
tp1851
a(F461
F418
tp1852
a(F460
F415
tp1853
a(F456
F405
tp1854
a(F449
F405
tp1855
a(F438
F397
tp1856
a(F434
F393
tp1857
a(F434
F394
tp1858
a(F430
F387
tp1859
a(F430
F389
tp1860
a(F426
F386
tp1861
a(F423
F385
tp1862
a(F426
F394
tp1863
a(F419
F391
tp1864
a(F413
F392
tp1865
a(F409
F393
tp1866
a(F404
F389
tp1867
a(F404
F392
tp1868
a(F402
F390
tp1869
a(F406
F388
tp1870
a(F398
F393
tp1871
a(F392
F390
tp1872
a(F392
F397
tp1873
a(F389
F399
tp1874
a(F381
F398
tp1875
a(F376
F406
tp1876
a(F370
F408
tp1877
a(F373
F410
tp1878
a(F378
F414
tp1879
a(F380
F409
tp1880
a(F385
F412
tp1881
a(F387
F409
tp1882
a(F390
F407
tp1883
a(F401
F413
tp1884
a(F403
F413
tp1885
a(F404
F419
tp1886
a(F398
F425
tp1887
a(F396
F427
tp1888
a(F400
F437
tp1889
a(F401
F441
tp1890
a(F401
F444
tp1891
a(F404
F453
tp1892
a(F407
F455
tp1893
a(F419
F467
tp1894
a(F422
F472
tp1895
a(F419
F477
tp1896
a(F415
F484
tp1897
a(F406
F481
tp1898
a(F408
F486
tp1899
a(F411
F488
tp1900
a(F411
F486
tp1901
a(F416
F489
tp1902
a(F418
F487
tp1903
a(F427
F487
tp1904
a(F440
F490
tp1905
a(F444
F486
tp1906
a(F447
F486
tp1907
a(F446
F486
tp1908
a(F445
F484
tp1909
a(F450
F489
tp1910
a(F450
F488
tp1911
a(F0
F429
tp1912
a(F515
F318
tp1913
a(F511
F325
tp1914
a(F501
F334
tp1915
a(F490
F337
tp1916
a(F484
F347
tp1917
a(F474
F348
tp1918
a(F462
F349
tp1919
a(F454
F353
tp1920
a(F444
F350
tp1921
a(F445
F353
tp1922
a(F444
F355
tp1923
a(F440
F357
tp1924
a(F442
F367
tp1925
a(F442
F367
tp1926
a(F453
F374
tp1927
a(F462
F378
tp1928
a(F464
F376
tp1929
a(F469
F381
tp1930
a(F472
F378
tp1931
a(F478
F374
tp1932
a(F485
F374
tp1933
a(F483
F364
tp1934
a(F482
F363
tp1935
a(F480
F359
tp1936
a(F479
F358
tp1937
a(F485
F355
tp1938
a(F483
F352
tp1939
a(F484
F354
tp1940
a(F486
F359
tp1941
a(F488
F355
tp1942
a(F495
F358
tp1943
a(F497
F356
tp1944
a(F498
F352
tp1945
a(F501
F358
tp1946
a(F501
F353
tp1947
a(F506
F351
tp1948
a(F509
F352
tp1949
a(F506
F340
tp1950
a(F509
F353
tp1951
a(F504
F349
tp1952
a(F502
F342
tp1953
a(F503
F343
tp1954
a(F499
F335
tp1955
a(F498
F338
tp1956
a(F492
F337
tp1957
a(F488
F330
tp1958
a(F491
F334
tp1959
a(F488
F327
tp1960
a(F487
F328
tp1961
a(F485
F331
tp1962
a(F481
F332
tp1963
a(F484
F323
tp1964
a(F484
F322
tp1965
a(F482
F317
tp1966
a(F478
F336
tp1967
a(F469
F336
tp1968
a(F468
F339
tp1969
a(F467
F341
tp1970
a(F465
F343
tp1971
a(F467
F355
tp1972
a(F463
F357
tp1973
a(F464
F358
tp1974
a(F465
F364
tp1975
a(F462
F358
tp1976
a(F464
F363
tp1977
a(F459
F363
tp1978
a(F457
F359
tp1979
a(F456
F363
tp1980
a(F449
F358
tp1981
a(F446
F358
tp1982
a(F444
F363
tp1983
a(F443
F362
tp1984
a(F451
F372
tp1985
a(F451
F373
tp1986
a(F449
F374
tp1987
a(F448
F384
tp1988
a(F442
F380
tp1989
a(F444
F384
tp1990
a(F443
F385
tp1991
a(F433
F384
tp1992
a(F439
F396
tp1993
a(F434
F396
tp1994
a(F437
F401
tp1995
a(F443
F407
tp1996
a(F444
F413
tp1997
a(F447
F421
tp1998
a(F442
F423
tp1999
a(F439
F420
tp2000
a(F439
F424
tp2001
a(F430
F420
tp2002
a(F425
F424
tp2003
a(F417
F427
tp2004
a(F412
F421
tp2005
a(F416
F432
tp2006
a(F414
F428
tp2007
a(F412
F427
tp2008
a(F408
F432
tp2009
a(F405
F427
tp2010
a(F412
F435
tp2011
a(F414
F436
tp2012
a(F416
F432
tp2013
a(F422
F446
tp2014
a(F420
F445
tp2015
a(F425
F451
tp2016
a(F426
F456
tp2017
a(F425
F453
tp2018
a(F425
F462
tp2019
a(F423
F457
tp2020
a(F424
F448
tp2021
a(F431
F450
tp2022
a(F430
F443
tp2023
a(F430
F445
tp2024
a(F425
F444
tp2025
a(F421
F437
tp2026
a(F420
F442
tp2027
a(F416
F437
tp2028
a(F416
F438
tp2029
a(F415
F443
tp2030
a(F414
F438
tp2031
a(F421
F443
tp2032
a(F422
F440
tp2033
a(F422
F438
tp2034
a(F424
F444
tp2035
a(F424
F439
tp2036
a(F430
F440
tp2037
a(F434
F440
tp2038
a(F434
F436
tp2039
a(F438
F446
tp2040
a(F435
F443
tp2041
a(F437
F436
tp2042
a(F441
F437
tp2043
a(F438
F432
tp2044
a(F437
F437
tp2045
a(F434
F440
tp2046
a(F431
F437
tp2047
a(F434
F442
tp2048
a(F431
F439
tp2049
a(F431
F441
tp2050
a(F432
F446
tp2051
a(F434
F440
tp2052
a(F444
F445
tp2053
a(F447
F443
tp2054
a(F452
F445
tp2055
a(F450
F456
tp2056
a(F447
F454
tp2057
a(F451
F458
tp2058
a(F452
F458
tp2059
a(F452
F453
tp2060
a(F450
F462
tp2061
a(F448
F458
tp2062
a(F449
F453
tp2063
a(F452
F452
tp2064
a(F451
F442
tp2065
a(F452
F442
tp2066
a(F451
F440
tp2067
a(F451
F434
tp2068
a(F456
F438
tp2069
a(F452
F432
tp2070
a(F449
F433
tp2071
a(F446
F436
tp2072
a(F444
F435
tp2073
a(F450
F439
tp2074
a(F454
F438
tp2075
a(F454
F441
tp2076
a(F451
F450
tp2077
a(F445
F447
tp2078
a(F445
F449
tp2079
a(F443
F447
tp2080
a(F438
F443
tp2081
a(F439
F454
tp2082
a(F436
F451
tp2083
a(F439
F450
tp2084
a(F444
F456
tp2085
a(F442
F452
tp2086
a(F446
F461
tp2087
a(F448
F461
tp2088
a(F454
F460
tp2089
a(F462
F463
tp2090
a(F461
F453
tp2091
a(F458
F449
tp2092
a(F454
F443
tp2093
a(F450
F429
tp2094
a(F452
F426
tp2095
a(F447
F416
tp2096
a(F442
F413
tp2097
a(F435
F417
tp2098
a(F428
F414
tp2099
a(F427
F417
tp2100
a(F421
F416
tp2101
a(F413
F414
tp2102
a(F408
F425
tp2103
a(F400
F424
tp2104
a(F402
F425
tp2105
a(F405
F426
tp2106
a(F404
F422
tp2107
a(F407
F430
tp2108
a(F407
F431
tp2109
a(F410
F430
tp2110
a(F416
F433
tp2111
a(F413
F427
tp2112
a(F412
F430
tp2113
a(F408
F429
tp2114
a(F404
F424
tp2115
a(F407
F428
tp2116
a(F409
F423
tp2117
a(F413
F431
tp2118
a(F417
F429
tp2119
a(F418
F420
tp2120
a(F424
F419
tp2121
a(F422
F409
tp2122
a(F419
F400
tp2123
a(F418
F410
tp2124
a(F413
F406
tp2125
a(F413
F409
tp2126
a(F410
F411
tp2127
a(F402
F409
tp2128
a(F399
F422
tp2129
a(F396
F428
tp2130
a(F398
F437
tp2131
a(F404
F440
tp2132
a(F401
F433
tp2133
a(F401
F437
tp2134
a(F399
F435
tp2135
a(F406
F430
tp2136
a(F410
F434
tp2137
a(F410
F428
tp2138
a(F410
F429
tp2139
a(F406
F435
tp2140
a(F401
F428
tp2141
a(F409
F436
tp2142
a(F412
F436
tp2143
a(F415
F433
tp2144
a(F421
F445
tp2145
a(F424
F443
tp2146
a(F432
F445
tp2147
a(F435
F444
tp2148
a(F431
F441
tp2149
a(F429
F446
tp2150
a(F423
F439
tp2151
a(F423
F437
tp2152
a(F423
F436
tp2153
a(F418
F432
tp2154
a(F417
F437
tp2155
a(F415
F434
tp2156
a(F417
F433
tp2157
a(F424
F431
tp2158
a(F423
F428
tp2159
a(F424
F437
tp2160
a(F425
F443
tp2161
a(F425
F439
tp2162
a(F429
F446
tp2163
a(F430
F440
tp2164
a(F431
F437
tp2165
a(F434
F447
tp2166
a(F435
F439
tp2167
a(F445
F443
tp2168
a(F449
F445
tp2169
a(F451
F441
tp2170
a(F456
F448
tp2171
a(F460
F445
tp2172
a(F466
F446
tp2173
as.